; Function Attrs: null_pointer_is_valid sspstrong uwtable
define range(i32 0, 34) i32 @conversation_pt_to_endpoint_type(i32 noundef %0) local_unnamed_addr #0 {
  %2 = icmp ult i32 %0, 14
  br i1 %2, label %switch.lookup, label %3

3:                                                ; preds = %1
  tail call void (ptr, ...) @proto_report_dissector_bug(ptr noundef nonnull @.str, ptr noundef nonnull @.str.1, i32 noundef 2709, ptr noundef nonnull @.str.14) #16
  unreachable

switch.lookup:                                    ; preds = %1
  %4 = zext nneg i32 %0 to i64
  %switch.gep = getelementptr inbounds nuw [14 x i32], ptr @switch.table.conversation_pt_to_endpoint_type, i64 0, i64 %4
  %switch.load = load i32, ptr %switch.gep, align 4
  ret i32 %switch.load
}